target datalayout = "e-m:e-p270:32:32-p271:32:32-p272:64:64-i64:64-i128:128-f80:128-n8:16:32:64-S128"
target triple = "x86_64-pc-linux-gnu"

%struct.AVFilterContext = type { ptr, ptr, ptr, ptr, ptr, i32, ptr, ptr, i32, ptr, ptr, i32, i32, ptr, ptr, ptr, ptr, i32, ptr, i32, i32 }
%struct.FFFilterContext = type { %struct.AVFilterContext, ptr, i32, i32, ptr, ptr, ptr }
%struct.FilterLinkInternal = type { %struct.FilterLink, ptr, %struct.FFFrameQueue, i32, i32, i64, i32, i32, i32, i32 }
%struct.FilterLink = type { %struct.AVFilterLink, ptr, i64, i64, i32, i32, i64, i64, i64, i64, %struct.AVRational, ptr }
%struct.AVFilterLink = type { ptr, ptr, ptr, ptr, i32, i32, i32, i32, %struct.AVRational, i32, i32, i32, %struct.AVChannelLayout, %struct.AVRational, ptr, i32, %struct.AVFilterFormatsConfig, %struct.AVFilterFormatsConfig }
%struct.AVChannelLayout = type { i32, i32, %union.anon.0, ptr }
%union.anon.0 = type { i64 }
%struct.AVFilterFormatsConfig = type { ptr, ptr, ptr, ptr, ptr }
%struct.AVRational = type { i32, i32 }
%struct.FFFrameQueue = type { ptr, i64, i64, i64, %struct.FFFrameBucket, i64, i64, i64, i64, i32 }
%struct.FFFrameBucket = type { ptr }

; Function Attrs: inlinehint nounwind uwtable
define internal ptr @fffilterctx(ptr noundef %0) #4 {
  %2 = alloca ptr, align 8
  store ptr %0, ptr %2, align 8, !tbaa !4
  %3 = load ptr, ptr %2, align 8, !tbaa !4
  ret ptr %3
}

; Function Attrs: nounwind uwtable
define void @ff_filter_set_ready(ptr noundef %0, i32 noundef %1) #0 {
  %3 = alloca ptr, align 8
  %4 = alloca i32, align 4
  %5 = alloca ptr, align 8
  store ptr %0, ptr %3, align 8, !tbaa !4
  store i32 %1, ptr %4, align 4, !tbaa !19
  call void @llvm.lifetime.start.p0(i64 8, ptr %5) #11
  %6 = load ptr, ptr %3, align 8, !tbaa !4
  %7 = call ptr @fffilterctx(ptr noundef %6)
  store ptr %7, ptr %5, align 8, !tbaa !74
  %8 = load ptr, ptr %5, align 8, !tbaa !74
  %9 = getelementptr inbounds nuw %struct.FFFilterContext, ptr %8, i32 0, i32 3
  %10 = load i32, ptr %9, align 4, !tbaa !76
  %11 = load i32, ptr %4, align 4, !tbaa !19
  %12 = icmp ugt i32 %10, %11
  br i1 %12, label %13, label %17

13:                                               ; preds = %2
  %14 = load ptr, ptr %5, align 8, !tbaa !74
  %15 = getelementptr inbounds nuw %struct.FFFilterContext, ptr %14, i32 0, i32 3
  %16 = load i32, ptr %15, align 4, !tbaa !76
  br label %19

17:                                               ; preds = %2
  %18 = load i32, ptr %4, align 4, !tbaa !19
  br label %19

19:                                               ; preds = %17, %13
  %20 = phi i32 [ %16, %13 ], [ %18, %17 ]
  %21 = load ptr, ptr %5, align 8, !tbaa !74
  %22 = getelementptr inbounds nuw %struct.FFFilterContext, ptr %21, i32 0, i32 3
  store i32 %20, ptr %22, align 4, !tbaa !76
  call void @llvm.lifetime.end.p0(i64 8, ptr %5) #11
  ret void
}

; Function Attrs: inlinehint nounwind uwtable
define internal i64 @ff_framequeue_queued_frames(ptr noundef %0) #4 {
  %2 = alloca ptr, align 8
  store ptr %0, ptr %2, align 8, !tbaa !121
  %3 = load ptr, ptr %2, align 8, !tbaa !121
  %4 = getelementptr inbounds nuw %struct.FFFrameQueue, ptr %3, i32 0, i32 3
  %5 = load i64, ptr %4, align 8, !tbaa !123
  ret i64 %5
}

; Function Attrs: inlinehint nounwind uwtable
define internal ptr @ff_link_internal(ptr noundef %0) #4 {
  %2 = alloca ptr, align 8
  store ptr %0, ptr %2, align 8, !tbaa !26
  %3 = load ptr, ptr %2, align 8, !tbaa !26
  ret ptr %3
}

; Function Attrs: nounwind uwtable
define i32 @ff_request_frame(ptr noundef %0) #0 {
  %2 = alloca i32, align 4
  %3 = alloca ptr, align 8
  %4 = alloca ptr, align 8
  %5 = alloca i32, align 4
  store ptr %0, ptr %3, align 8, !tbaa !26
  call void @llvm.lifetime.start.p0(i64 8, ptr %4) #11
  %6 = load ptr, ptr %3, align 8, !tbaa !26
  %7 = call ptr @ff_link_internal(ptr noundef %6)
  store ptr %7, ptr %4, align 8, !tbaa !47
  br label %8

8:                                                ; preds = %1
  br label %9

9:                                                ; preds = %8
  br label %10

10:                                               ; preds = %9
  br label %11

11:                                               ; preds = %10
  br label %12

12:                                               ; preds = %11
  br label %13

13:                                               ; preds = %12
  %14 = load ptr, ptr %4, align 8, !tbaa !47
  %15 = getelementptr inbounds nuw %struct.FilterLinkInternal, ptr %14, i32 0, i32 6
  %16 = load i32, ptr %15, align 8, !tbaa !120
  %17 = icmp ne i32 %16, 0
  br i1 %17, label %18, label %22

18:                                               ; preds = %13
  %19 = load ptr, ptr %4, align 8, !tbaa !47
  %20 = getelementptr inbounds nuw %struct.FilterLinkInternal, ptr %19, i32 0, i32 6
  %21 = load i32, ptr %20, align 8, !tbaa !120
  store i32 %21, ptr %2, align 4
  store i32 1, ptr %5, align 4
  br label %50

22:                                               ; preds = %13
  %23 = load ptr, ptr %4, align 8, !tbaa !47
  %24 = getelementptr inbounds nuw %struct.FilterLinkInternal, ptr %23, i32 0, i32 4
  %25 = load i32, ptr %24, align 4, !tbaa !78
  %26 = icmp ne i32 %25, 0
  br i1 %26, label %27, label %44

27:                                               ; preds = %22
  %28 = load ptr, ptr %4, align 8, !tbaa !47
  %29 = getelementptr inbounds nuw %struct.FilterLinkInternal, ptr %28, i32 0, i32 2
  %30 = call i64 @ff_framequeue_queued_frames(ptr noundef %29)
  %31 = icmp ne i64 %30, 0
  br i1 %31, label %32, label %33

32:                                               ; preds = %27
  store i32 0, ptr %2, align 4
  store i32 1, ptr %5, align 4
  br label %50

33:                                               ; preds = %27
  %34 = load ptr, ptr %3, align 8, !tbaa !26
  %35 = load ptr, ptr %4, align 8, !tbaa !47
  %36 = getelementptr inbounds nuw %struct.FilterLinkInternal, ptr %35, i32 0, i32 4
  %37 = load i32, ptr %36, align 4, !tbaa !78
  %38 = load ptr, ptr %4, align 8, !tbaa !47
  %39 = getelementptr inbounds nuw %struct.FilterLinkInternal, ptr %38, i32 0, i32 5
  %40 = load i64, ptr %39, align 8, !tbaa !79
  call void @link_set_out_status(ptr noundef %34, i32 noundef %37, i64 noundef %40)
  %41 = load ptr, ptr %4, align 8, !tbaa !47
  %42 = getelementptr inbounds nuw %struct.FilterLinkInternal, ptr %41, i32 0, i32 6
  %43 = load i32, ptr %42, align 8, !tbaa !120
  store i32 %43, ptr %2, align 4
  store i32 1, ptr %5, align 4
  br label %50

44:                                               ; preds = %22
  %45 = load ptr, ptr %4, align 8, !tbaa !47
  %46 = getelementptr inbounds nuw %struct.FilterLinkInternal, ptr %45, i32 0, i32 7
  store i32 1, ptr %46, align 4, !tbaa !80
  %47 = load ptr, ptr %3, align 8, !tbaa !26
  %48 = getelementptr inbounds nuw %struct.AVFilterLink, ptr %47, i32 0, i32 0
  %49 = load ptr, ptr %48, align 8, !tbaa !49
  call void @ff_filter_set_ready(ptr noundef %49, i32 noundef 100)
  store i32 0, ptr %2, align 4
  store i32 1, ptr %5, align 4
  br label %50

50:                                               ; preds = %44, %33, %32, %18
  call void @llvm.lifetime.end.p0(i64 8, ptr %4) #11
  %51 = load i32, ptr %2, align 4
  ret i32 %51
}