; Function Attrs: nounwind uwtable
define i32 @ff_request_frame(ptr noundef %0) local_unnamed_addr #0 {
  %2 = getelementptr inbounds nuw i8, ptr %0, i64 384
  %3 = load i32, ptr %2, align 8, !tbaa !99
  %.not = icmp eq i32 %3, 0
  br i1 %.not, label %4, label %18

4:                                                ; preds = %1
  %5 = getelementptr inbounds nuw i8, ptr %0, i64 372
  %6 = load i32, ptr %5, align 4, !tbaa !63
  %.not12 = icmp eq i32 %6, 0
  br i1 %.not12, label %13, label %7

7:                                                ; preds = %4
  %8 = getelementptr i8, ptr %0, i64 312
  %.val = load i64, ptr %8, align 8, !tbaa !100
  %.not13 = icmp eq i64 %.val, 0
  br i1 %.not13, label %9, label %18

9:                                                ; preds = %7
  %10 = getelementptr inbounds nuw i8, ptr %0, i64 376
  %11 = load i64, ptr %10, align 8, !tbaa !64
  tail call fastcc void @link_set_out_status(ptr noundef nonnull %0, i32 noundef %6, i64 noundef %11)
  %12 = load i32, ptr %2, align 8, !tbaa !99
  br label %18

13:                                               ; preds = %4
  %14 = getelementptr inbounds nuw i8, ptr %0, i64 388
  store i32 1, ptr %14, align 4, !tbaa !65
  %15 = load ptr, ptr %0, align 8, !tbaa !38
  %16 = getelementptr inbounds nuw i8, ptr %15, i64 164
  %17 = load i32, ptr %16, align 4, !tbaa !62
  %..i = tail call i32 @llvm.umax.i32(i32 %17, i32 100)
  store i32 %..i, ptr %16, align 4, !tbaa !62
  br label %18

18:                                               ; preds = %7, %1, %13, %9
  %.0 = phi i32 [ %12, %9 ], [ 0, %13 ], [ %3, %1 ], [ 0, %7 ]
  ret i32 %.0
}